; Function Attrs: mustprogress uwtable
define hidden void @_ZN2qe12guarded_defs7projectEjPKP3app(ptr nocapture noundef nonnull readonly align 8 dereferenceable(24) %this, i32 noundef %num_vars, ptr nocapture noundef readonly %vars) local_unnamed_addr #3 align 2 {
entry:
  %m_nodes.i.i = getelementptr inbounds i8, ptr %this, i64 8
  %m_defs = getelementptr inbounds i8, ptr %this, i64 16
  br label %for.cond

for.cond:                                         ; preds = %for.body, %entry
  %indvars.iv = phi i64 [ %indvars.iv.next, %for.body ], [ 0, %entry ]
  %0 = load ptr, ptr %m_nodes.i.i, align 8
  %cmp.i.i.i = icmp eq ptr %0, null
  br i1 %cmp.i.i.i, label %_ZNK2qe12guarded_defs4sizeEv.exit, label %if.end.i.i.i

if.end.i.i.i:                                     ; preds = %for.cond
  %arrayidx.i.i.i = getelementptr inbounds i8, ptr %0, i64 -4
  %1 = load i32, ptr %arrayidx.i.i.i, align 4
  br label %_ZNK2qe12guarded_defs4sizeEv.exit

_ZNK2qe12guarded_defs4sizeEv.exit:                ; preds = %for.cond, %if.end.i.i.i
  %retval.0.i.i.i = phi i32 [ %1, %if.end.i.i.i ], [ 0, %for.cond ]
  %2 = zext i32 %retval.0.i.i.i to i64
  %cmp = icmp ult i64 %indvars.iv, %2
  br i1 %cmp, label %for.body, label %for.end

for.body:                                         ; preds = %_ZNK2qe12guarded_defs4sizeEv.exit
  %3 = load ptr, ptr %m_defs, align 8
  %arrayidx.i = getelementptr inbounds %"class.qe::def_vector", ptr %3, i64 %indvars.iv
  tail call void @_ZN2qe10def_vector7projectEjPKP3app(ptr noundef nonnull align 8 dereferenceable(32) %arrayidx.i, i32 noundef %num_vars, ptr noundef %vars)
  %indvars.iv.next = add nuw nsw i64 %indvars.iv, 1
  br label %for.cond, !llvm.loop !22

for.end:                                          ; preds = %_ZNK2qe12guarded_defs4sizeEv.exit
  ret void
}